target datalayout = "e-m:e-p270:32:32-p271:32:32-p272:64:64-i64:64-i128:128-f80:128-n8:16:32:64-S128"
target triple = "x86_64-pc-linux-gnu"

; Function Attrs: nounwind uwtable
define hidden void @ScaleFilterCols_C(ptr noundef %0, ptr noundef %1, i32 noundef %2, i32 noundef %3, i32 noundef %4) #0 {
  %6 = alloca ptr, align 8
  %7 = alloca ptr, align 8
  %8 = alloca i32, align 4
  %9 = alloca i32, align 4
  %10 = alloca i32, align 4
  %11 = alloca i32, align 4
  %12 = alloca i32, align 4
  %13 = alloca i32, align 4
  %14 = alloca i32, align 4
  %15 = alloca i32, align 4
  %16 = alloca i32, align 4
  %17 = alloca i32, align 4
  store ptr %0, ptr %6, align 8
  store ptr %1, ptr %7, align 8
  store i32 %2, ptr %8, align 4
  store i32 %3, ptr %9, align 4
  store i32 %4, ptr %10, align 4
  store i32 0, ptr %11, align 4
  br label %18

18:                                               ; preds = %90, %5
  %19 = load i32, ptr %11, align 4
  %20 = load i32, ptr %8, align 4
  %21 = sub nsw i32 %20, 1
  %22 = icmp slt i32 %19, %21
  br i1 %22, label %23, label %93

23:                                               ; preds = %18
  %24 = load i32, ptr %9, align 4
  %25 = ashr i32 %24, 16
  store i32 %25, ptr %12, align 4
  %26 = load ptr, ptr %7, align 8
  %27 = load i32, ptr %12, align 4
  %28 = sext i32 %27 to i64
  %29 = getelementptr inbounds i8, ptr %26, i64 %28
  %30 = load i8, ptr %29, align 1
  %31 = zext i8 %30 to i32
  store i32 %31, ptr %13, align 4
  %32 = load ptr, ptr %7, align 8
  %33 = load i32, ptr %12, align 4
  %34 = add nsw i32 %33, 1
  %35 = sext i32 %34 to i64
  %36 = getelementptr inbounds i8, ptr %32, i64 %35
  %37 = load i8, ptr %36, align 1
  %38 = zext i8 %37 to i32
  store i32 %38, ptr %14, align 4
  %39 = load i32, ptr %13, align 4
  %40 = load i32, ptr %9, align 4
  %41 = and i32 %40, 65535
  %42 = ashr i32 %41, 9
  %43 = load i32, ptr %14, align 4
  %44 = load i32, ptr %13, align 4
  %45 = sub nsw i32 %43, %44
  %46 = mul nsw i32 %42, %45
  %47 = add nsw i32 %46, 64
  %48 = ashr i32 %47, 7
  %49 = add nsw i32 %39, %48
  %50 = trunc i32 %49 to i8
  %51 = load ptr, ptr %6, align 8
  %52 = getelementptr inbounds i8, ptr %51, i64 0
  store i8 %50, ptr %52, align 1
  %53 = load i32, ptr %10, align 4
  %54 = load i32, ptr %9, align 4
  %55 = add nsw i32 %54, %53
  store i32 %55, ptr %9, align 4
  %56 = load i32, ptr %9, align 4
  %57 = ashr i32 %56, 16
  store i32 %57, ptr %12, align 4
  %58 = load ptr, ptr %7, align 8
  %59 = load i32, ptr %12, align 4
  %60 = sext i32 %59 to i64
  %61 = getelementptr inbounds i8, ptr %58, i64 %60
  %62 = load i8, ptr %61, align 1
  %63 = zext i8 %62 to i32
  store i32 %63, ptr %13, align 4
  %64 = load ptr, ptr %7, align 8
  %65 = load i32, ptr %12, align 4
  %66 = add nsw i32 %65, 1
  %67 = sext i32 %66 to i64
  %68 = getelementptr inbounds i8, ptr %64, i64 %67
  %69 = load i8, ptr %68, align 1
  %70 = zext i8 %69 to i32
  store i32 %70, ptr %14, align 4
  %71 = load i32, ptr %13, align 4
  %72 = load i32, ptr %9, align 4
  %73 = and i32 %72, 65535
  %74 = ashr i32 %73, 9
  %75 = load i32, ptr %14, align 4
  %76 = load i32, ptr %13, align 4
  %77 = sub nsw i32 %75, %76
  %78 = mul nsw i32 %74, %77
  %79 = add nsw i32 %78, 64
  %80 = ashr i32 %79, 7
  %81 = add nsw i32 %71, %80
  %82 = trunc i32 %81 to i8
  %83 = load ptr, ptr %6, align 8
  %84 = getelementptr inbounds i8, ptr %83, i64 1
  store i8 %82, ptr %84, align 1
  %85 = load i32, ptr %10, align 4
  %86 = load i32, ptr %9, align 4
  %87 = add nsw i32 %86, %85
  store i32 %87, ptr %9, align 4
  %88 = load ptr, ptr %6, align 8
  %89 = getelementptr inbounds i8, ptr %88, i64 2
  store ptr %89, ptr %6, align 8
  br label %90

90:                                               ; preds = %23
  %91 = load i32, ptr %11, align 4
  %92 = add nsw i32 %91, 2
  store i32 %92, ptr %11, align 4
  br label %18, !llvm.loop !13

93:                                               ; preds = %18
  %94 = load i32, ptr %8, align 4
  %95 = and i32 %94, 1
  %96 = icmp ne i32 %95, 0
  br i1 %96, label %97, label %127

97:                                               ; preds = %93
  %98 = load i32, ptr %9, align 4
  %99 = ashr i32 %98, 16
  store i32 %99, ptr %15, align 4
  %100 = load ptr, ptr %7, align 8
  %101 = load i32, ptr %15, align 4
  %102 = sext i32 %101 to i64
  %103 = getelementptr inbounds i8, ptr %100, i64 %102
  %104 = load i8, ptr %103, align 1
  %105 = zext i8 %104 to i32
  store i32 %105, ptr %16, align 4
  %106 = load ptr, ptr %7, align 8
  %107 = load i32, ptr %15, align 4
  %108 = add nsw i32 %107, 1
  %109 = sext i32 %108 to i64
  %110 = getelementptr inbounds i8, ptr %106, i64 %109
  %111 = load i8, ptr %110, align 1
  %112 = zext i8 %111 to i32
  store i32 %112, ptr %17, align 4
  %113 = load i32, ptr %16, align 4
  %114 = load i32, ptr %9, align 4
  %115 = and i32 %114, 65535
  %116 = ashr i32 %115, 9
  %117 = load i32, ptr %17, align 4
  %118 = load i32, ptr %16, align 4
  %119 = sub nsw i32 %117, %118
  %120 = mul nsw i32 %116, %119
  %121 = add nsw i32 %120, 64
  %122 = ashr i32 %121, 7
  %123 = add nsw i32 %113, %122
  %124 = trunc i32 %123 to i8
  %125 = load ptr, ptr %6, align 8
  %126 = getelementptr inbounds i8, ptr %125, i64 0
  store i8 %124, ptr %126, align 1
  br label %127

127:                                              ; preds = %97, %93
  ret void
}