; Function Attrs: nofree norecurse nosync nounwind memory(argmem: readwrite) uwtable
define hidden void @ScaleFilterCols_C(ptr noundef writeonly captures(none) %0, ptr noundef readonly captures(none) %1, i32 noundef %2, i32 noundef %3, i32 noundef %4) local_unnamed_addr #0 {
  %6 = add nsw i32 %2, -1
  %7 = icmp sgt i32 %2, 1
  br i1 %7, label %.lr.ph, label %._crit_edge

.lr.ph:                                           ; preds = %5, %.lr.ph
  %.042 = phi ptr [ %43, %.lr.ph ], [ %0, %5 ]
  %.03841 = phi i32 [ %42, %.lr.ph ], [ %3, %5 ]
  %.03940 = phi i32 [ %44, %.lr.ph ], [ 0, %5 ]
  %8 = ashr i32 %.03841, 16
  %9 = sext i32 %8 to i64
  %10 = getelementptr inbounds i8, ptr %1, i64 %9
  %11 = load i8, ptr %10, align 1
  %12 = zext i8 %11 to i32
  %13 = getelementptr i8, ptr %10, i64 1
  %14 = load i8, ptr %13, align 1
  %15 = zext i8 %14 to i32
  %16 = lshr i32 %.03841, 9
  %17 = and i32 %16, 127
  %18 = sub nsw i32 %15, %12
  %19 = mul nsw i32 %18, %17
  %20 = add nsw i32 %19, 64
  %21 = lshr i32 %20, 7
  %22 = trunc i32 %21 to i8
  %23 = add i8 %11, %22
  store i8 %23, ptr %.042, align 1
  %24 = add nsw i32 %.03841, %4
  %25 = ashr i32 %24, 16
  %26 = sext i32 %25 to i64
  %27 = getelementptr inbounds i8, ptr %1, i64 %26
  %28 = load i8, ptr %27, align 1
  %29 = zext i8 %28 to i32
  %30 = getelementptr i8, ptr %27, i64 1
  %31 = load i8, ptr %30, align 1
  %32 = zext i8 %31 to i32
  %33 = lshr i32 %24, 9
  %34 = and i32 %33, 127
  %35 = sub nsw i32 %32, %29
  %36 = mul nsw i32 %35, %34
  %37 = add nsw i32 %36, 64
  %38 = lshr i32 %37, 7
  %39 = trunc i32 %38 to i8
  %40 = add i8 %28, %39
  %41 = getelementptr inbounds nuw i8, ptr %.042, i64 1
  store i8 %40, ptr %41, align 1
  %42 = add nsw i32 %24, %4
  %43 = getelementptr inbounds nuw i8, ptr %.042, i64 2
  %44 = add nuw nsw i32 %.03940, 2
  %45 = icmp slt i32 %44, %6
  br i1 %45, label %.lr.ph, label %._crit_edge, !llvm.loop !13

._crit_edge:                                      ; preds = %.lr.ph, %5
  %.038.lcssa = phi i32 [ %3, %5 ], [ %42, %.lr.ph ]
  %.0.lcssa = phi ptr [ %0, %5 ], [ %43, %.lr.ph ]
  %46 = and i32 %2, 1
  %.not = icmp eq i32 %46, 0
  br i1 %.not, label %64, label %47

47:                                               ; preds = %._crit_edge
  %48 = ashr i32 %.038.lcssa, 16
  %49 = sext i32 %48 to i64
  %50 = getelementptr inbounds i8, ptr %1, i64 %49
  %51 = load i8, ptr %50, align 1
  %52 = zext i8 %51 to i32
  %53 = getelementptr i8, ptr %50, i64 1
  %54 = load i8, ptr %53, align 1
  %55 = zext i8 %54 to i32
  %56 = lshr i32 %.038.lcssa, 9
  %57 = and i32 %56, 127
  %58 = sub nsw i32 %55, %52
  %59 = mul nsw i32 %58, %57
  %60 = add nsw i32 %59, 64
  %61 = lshr i32 %60, 7
  %62 = trunc i32 %61 to i8
  %63 = add i8 %51, %62
  store i8 %63, ptr %.0.lcssa, align 1
  br label %64

64:                                               ; preds = %47, %._crit_edge
  ret void
}